target datalayout = "e-m:e-p270:32:32-p271:32:32-p272:64:64-i64:64-i128:128-f80:128-n8:16:32:64-S128"
target triple = "x86_64-pc-linux-gnu"

%"class.LIEF::PE::DelayImportEntry" = type <{ %"class.LIEF::Symbol", i64, i16, [6 x i8], i64, i64, i16, [6 x i8] }>
%"class.LIEF::Symbol" = type { %"class.LIEF::Object", %"class.std::__cxx11::basic_string", i64, i64 }
%"class.LIEF::Object" = type { ptr }
%"class.std::__cxx11::basic_string" = type { %"struct.std::__cxx11::basic_string<char>::_Alloc_hider", i64, %union.anon.0 }
%"struct.std::__cxx11::basic_string<char>::_Alloc_hider" = type { ptr }
%union.anon.0 = type { i64, [8 x i8] }

; Function Attrs: mustprogress uwtable
define void @_ZN4LIEF2PE16DelayImportEntryC2Ev(ptr noundef nonnull align 8 dereferenceable(90) %0) unnamed_addr #3 align 2 {
  %2 = alloca ptr, align 8
  store ptr %0, ptr %2, align 8
  %3 = load ptr, ptr %2, align 8
  call void @_ZN4LIEF6SymbolC2Ev(ptr noundef nonnull align 8 dereferenceable(56) %3)
  store ptr getelementptr inbounds ({ [14 x ptr] }, ptr @_ZTVN4LIEF2PE16DelayImportEntryE, i32 0, i32 0, i32 2), ptr %3, align 8
  %4 = getelementptr inbounds %"class.LIEF::PE::DelayImportEntry", ptr %3, i32 0, i32 1
  store i64 0, ptr %4, align 8
  %5 = getelementptr inbounds %"class.LIEF::PE::DelayImportEntry", ptr %3, i32 0, i32 2
  store i16 0, ptr %5, align 8
  %6 = getelementptr inbounds %"class.LIEF::PE::DelayImportEntry", ptr %3, i32 0, i32 4
  store i64 0, ptr %6, align 8
  %7 = getelementptr inbounds %"class.LIEF::PE::DelayImportEntry", ptr %3, i32 0, i32 5
  store i64 0, ptr %7, align 8
  %8 = getelementptr inbounds %"class.LIEF::PE::DelayImportEntry", ptr %3, i32 0, i32 6
  store i16 523, ptr %8, align 8
  ret void
}