; Function Attrs: mustprogress uwtable
define void @_ZN4LIEF2PE16DelayImportEntryC2Ev(ptr noundef nonnull align 8 dereferenceable(90) %0) unnamed_addr #3 align 2 {
  tail call void @_ZN4LIEF6SymbolC2Ev(ptr noundef nonnull align 8 dereferenceable(56) %0)
  store ptr getelementptr inbounds ({ [14 x ptr] }, ptr @_ZTVN4LIEF2PE16DelayImportEntryE, i64 0, i32 0, i64 2), ptr %0, align 8
  %2 = getelementptr inbounds i8, ptr %0, i64 56
  store i64 0, ptr %2, align 8
  %3 = getelementptr inbounds i8, ptr %0, i64 64
  store i16 0, ptr %3, align 8
  %4 = getelementptr inbounds i8, ptr %0, i64 72
  %5 = getelementptr inbounds i8, ptr %0, i64 88
  tail call void @llvm.memset.p0.i64(ptr noundef nonnull align 8 dereferenceable(16) %4, i8 0, i64 16, i1 false)
  store i16 523, ptr %5, align 8
  ret void
}